(lp0
(S'stty'
p1
S'/bin/stty'
p2
tp3
a(S'build_dir'
p4
S'.build/uno'
p5
tp6
a(S'boards.txt'
p7
S'/usr/share/arduino/hardware/arduino/boards.txt'
p8
tp9
a(S'avrdude'
p10
S'/usr/share/arduino/hardware/tools/avrdude'
p11
tp12
a(S'avrdude.conf'
p13
S'/usr/share/arduino/hardware/tools/avrdude.conf'
p14
tp15
a(S'serial'
p16
S'/usr/bin/picocom'
p17
tp18
a(S'board_models'
p19
cino.environment
BoardModels
p20
((lp21
(lp22
S'uno'
p23
a(dp24
S'build'
p25
(dp26
S'core'
p27
S'arduino'
p28
sS'mcu'
p29
S'atmega328p'
p30
sS'f_cpu'
p31
S'16000000L'
p32
sS'variant'
p33
S'standard'
p34
ssS'bootloader'
p35
(dp36
S'extended_fuses'
p37
S'0x05'
p38
sS'high_fuses'
p39
S'0xde'
p40
sS'low_fuses'
p41
S'0xff'
p42
sS'lock_bits'
p43
S'0x0F'
p44
sS'file'
p45
S'optiboot_atmega328.hex'
p46
sS'path'
p47
S'optiboot'
p48
sS'unlock_bits'
p49
S'0x3F'
p50
ssS'upload'
p51
(dp52
S'protocol'
p53
S'arduino'
p54
sS'maximum_size'
p55
S'32256'
p56
sS'speed'
p57
S'115200'
p58
ssS'name'
p59
S'Arduino Uno'
p60
saa(lp61
S'atmega328'
p62
a(dp63
S'build'
p64
(dp65
S'core'
p66
S'arduino'
p67
sS'mcu'
p68
S'atmega328p'
p69
sS'f_cpu'
p70
S'16000000L'
p71
sS'variant'
p72
S'standard'
p73
ssS'bootloader'
p74
(dp75
S'extended_fuses'
p76
S'0x05'
p77
sS'high_fuses'
p78
S'0xDA'
p79
sS'low_fuses'
p80
S'0xFF'
p81
sS'lock_bits'
p82
S'0x0F'
p83
sS'file'
p84
S'ATmegaBOOT_168_atmega328.hex'
p85
sS'path'
p86
S'atmega'
p87
sS'unlock_bits'
p88
S'0x3F'
p89
ssS'upload'
p90
(dp91
S'protocol'
p92
S'arduino'
p93
sS'maximum_size'
p94
S'30720'
p95
sS'speed'
p96
S'57600'
p97
ssS'name'
p98
S'Arduino Duemilanove w/ ATmega328'
p99
saa(lp100
S'diecimila'
p101
a(dp102
S'build'
p103
(dp104
S'core'
p105
S'arduino'
p106
sS'mcu'
p107
S'atmega168'
p108
sS'f_cpu'
p109
S'16000000L'
p110
sS'variant'
p111
S'standard'
p112
ssS'bootloader'
p113
(dp114
S'extended_fuses'
p115
S'0x00'
p116
sS'high_fuses'
p117
S'0xdd'
p118
sS'low_fuses'
p119
S'0xff'
p120
sS'lock_bits'
p121
S'0x0F'
p122
sS'file'
p123
S'ATmegaBOOT_168_diecimila.hex'
p124
sS'path'
p125
S'atmega'
p126
sS'unlock_bits'
p127
S'0x3F'
p128
ssS'upload'
p129
(dp130
S'protocol'
p131
S'arduino'
p132
sS'maximum_size'
p133
S'14336'
p134
sS'speed'
p135
S'19200'
p136
ssS'name'
p137
S'Arduino Diecimila or Duemilanove w/ ATmega168'
p138
saa(lp139
S'nano328'
p140
a(dp141
S'build'
p142
(dp143
S'core'
p144
S'arduino'
p145
sS'mcu'
p146
S'atmega328p'
p147
sS'f_cpu'
p148
S'16000000L'
p149
sS'variant'
p150
S'eightanaloginputs'
p151
ssS'bootloader'
p152
(dp153
S'extended_fuses'
p154
S'0x05'
p155
sS'high_fuses'
p156
S'0xDA'
p157
sS'low_fuses'
p158
S'0xFF'
p159
sS'lock_bits'
p160
S'0x0F'
p161
sS'file'
p162
S'ATmegaBOOT_168_atmega328.hex'
p163
sS'path'
p164
S'atmega'
p165
sS'unlock_bits'
p166
S'0x3F'
p167
ssS'upload'
p168
(dp169
S'protocol'
p170
S'arduino'
p171
sS'maximum_size'
p172
S'30720'
p173
sS'speed'
p174
S'57600'
p175
ssS'name'
p176
S'Arduino Nano w/ ATmega328'
p177
saa(lp178
S'nano'
p179
a(dp180
S'build'
p181
(dp182
S'core'
p183
S'arduino'
p184
sS'mcu'
p185
S'atmega168'
p186
sS'f_cpu'
p187
S'16000000L'
p188
sS'variant'
p189
S'eightanaloginputs'
p190
ssS'bootloader'
p191
(dp192
S'extended_fuses'
p193
S'0x00'
p194
sS'high_fuses'
p195
S'0xdd'
p196
sS'low_fuses'
p197
S'0xff'
p198
sS'lock_bits'
p199
S'0x0F'
p200
sS'file'
p201
S'ATmegaBOOT_168_diecimila.hex'
p202
sS'path'
p203
S'atmega'
p204
sS'unlock_bits'
p205
S'0x3F'
p206
ssS'upload'
p207
(dp208
S'protocol'
p209
S'arduino'
p210
sS'maximum_size'
p211
S'14336'
p212
sS'speed'
p213
S'19200'
p214
ssS'name'
p215
S'Arduino Nano w/ ATmega168'
p216
saa(lp217
S'mega2560'
p218
a(dp219
S'build'
p220
(dp221
S'core'
p222
S'arduino'
p223
sS'mcu'
p224
S'atmega2560'
p225
sS'f_cpu'
p226
S'16000000L'
p227
sS'variant'
p228
S'mega'
p229
ssS'bootloader'
p230
(dp231
S'extended_fuses'
p232
S'0xFD'
p233
sS'high_fuses'
p234
S'0xD8'
p235
sS'low_fuses'
p236
S'0xFF'
p237
sS'lock_bits'
p238
S'0x0F'
p239
sS'file'
p240
S'stk500boot_v2_mega2560.hex'
p241
sS'path'
p242
S'stk500v2'
p243
sS'unlock_bits'
p244
S'0x3F'
p245
ssS'upload'
p246
(dp247
S'protocol'
p248
S'wiring'
p249
sS'maximum_size'
p250
S'258048'
p251
sS'speed'
p252
S'115200'
p253
ssS'name'
p254
S'Arduino Mega 2560 or Mega ADK'
p255
saa(lp256
S'mega'
p257
a(dp258
S'build'
p259
(dp260
S'core'
p261
S'arduino'
p262
sS'mcu'
p263
S'atmega1280'
p264
sS'f_cpu'
p265
S'16000000L'
p266
sS'variant'
p267
S'mega'
p268
ssS'bootloader'
p269
(dp270
S'extended_fuses'
p271
S'0xF5'
p272
sS'high_fuses'
p273
S'0xDA'
p274
sS'low_fuses'
p275
S'0xFF'
p276
sS'lock_bits'
p277
S'0x0F'
p278
sS'file'
p279
S'ATmegaBOOT_168_atmega1280.hex'
p280
sS'path'
p281
S'atmega'
p282
sS'unlock_bits'
p283
S'0x3F'
p284
ssS'upload'
p285
(dp286
S'protocol'
p287
S'arduino'
p288
sS'maximum_size'
p289
S'126976'
p290
sS'speed'
p291
S'57600'
p292
ssS'name'
p293
S'Arduino Mega (ATmega1280)'
p294
saa(lp295
S'leonardo'
p296
a(dp297
S'build'
p298
(dp299
S'core'
p300
S'arduino'
p301
sS'f_cpu'
p302
S'16000000L'
p303
sS'vid'
p304
S'0x2341'
p305
sS'pid'
p306
S'0x8036'
p307
sS'variant'
p308
S'leonardo'
p309
sS'mcu'
p310
S'atmega32u4'
p311
ssS'bootloader'
p312
(dp313
S'extended_fuses'
p314
S'0xcb'
p315
sS'high_fuses'
p316
S'0xd8'
p317
sS'low_fuses'
p318
S'0xff'
p319
sS'lock_bits'
p320
S'0x2F'
p321
sS'file'
p322
S'Caterina-Leonardo.hex'
p323
sS'path'
p324
S'caterina'
p325
sS'unlock_bits'
p326
S'0x3F'
p327
ssS'upload'
p328
(dp329
S'protocol'
p330
S'avr109'
p331
sS'maximum_size'
p332
S'28672'
p333
sS'speed'
p334
S'57600'
p335
sS'disable_flushing'
p336
S'true'
p337
ssS'name'
p338
S'Arduino Leonardo'
p339
saa(lp340
S'esplora'
p341
a(dp342
S'build'
p343
(dp344
S'core'
p345
S'arduino'
p346
sS'f_cpu'
p347
S'16000000L'
p348
sS'vid'
p349
S'0x2341'
p350
sS'pid'
p351
S'0x803C'
p352
sS'variant'
p353
S'leonardo'
p354
sS'mcu'
p355
S'atmega32u4'
p356
ssS'bootloader'
p357
(dp358
S'extended_fuses'
p359
S'0xcb'
p360
sS'high_fuses'
p361
S'0xd8'
p362
sS'low_fuses'
p363
S'0xff'
p364
sS'lock_bits'
p365
S'0x2F'
p366
sS'file'
p367
S'Caterina-Esplora.hex'
p368
sS'path'
p369
S'caterina'
p370
sS'unlock_bits'
p371
S'0x3F'
p372
ssS'upload'
p373
(dp374
S'protocol'
p375
S'avr109'
p376
sS'maximum_size'
p377
S'28672'
p378
sS'speed'
p379
S'57600'
p380
sS'disable_flushing'
p381
S'true'
p382
ssS'name'
p383
S'Arduino Esplora'
p384
saa(lp385
S'micro'
p386
a(dp387
S'build'
p388
(dp389
S'core'
p390
S'arduino'
p391
sS'f_cpu'
p392
S'16000000L'
p393
sS'vid'
p394
S'0x2341'
p395
sS'pid'
p396
S'0x8037'
p397
sS'variant'
p398
S'micro'
p399
sS'mcu'
p400
S'atmega32u4'
p401
ssS'bootloader'
p402
(dp403
S'extended_fuses'
p404
S'0xcb'
p405
sS'high_fuses'
p406
S'0xd8'
p407
sS'low_fuses'
p408
S'0xff'
p409
sS'lock_bits'
p410
S'0x2F'
p411
sS'file'
p412
S'Caterina-Micro.hex'
p413
sS'path'
p414
S'caterina'
p415
sS'unlock_bits'
p416
S'0x3F'
p417
ssS'upload'
p418
(dp419
S'protocol'
p420
S'avr109'
p421
sS'maximum_size'
p422
S'28672'
p423
sS'speed'
p424
S'57600'
p425
sS'disable_flushing'
p426
S'true'
p427
ssS'name'
p428
S'Arduino Micro'
p429
saa(lp430
S'mini328'
p431
a(dp432
S'build'
p433
(dp434
S'core'
p435
S'arduino'
p436
sS'mcu'
p437
S'atmega328p'
p438
sS'f_cpu'
p439
S'16000000L'
p440
sS'variant'
p441
S'eightanaloginputs'
p442
ssS'bootloader'
p443
(dp444
S'extended_fuses'
p445
S'0x05'
p446
sS'high_fuses'
p447
S'0xd8'
p448
sS'low_fuses'
p449
S'0xff'
p450
sS'lock_bits'
p451
S'0x0F'
p452
sS'file'
p453
S'optiboot_atmega328-Mini.hex'
p454
sS'path'
p455
S'optiboot'
p456
sS'unlock_bits'
p457
S'0x3F'
p458
ssS'upload'
p459
(dp460
S'protocol'
p461
S'arduino'
p462
sS'maximum_size'
p463
S'28672'
p464
sS'speed'
p465
S'115200'
p466
ssS'name'
p467
S'Arduino Mini w/ ATmega328'
p468
saa(lp469
S'mini'
p470
a(dp471
S'build'
p472
(dp473
S'core'
p474
S'arduino'
p475
sS'mcu'
p476
S'atmega168'
p477
sS'f_cpu'
p478
S'16000000L'
p479
sS'variant'
p480
S'eightanaloginputs'
p481
ssS'bootloader'
p482
(dp483
S'extended_fuses'
p484
S'0x00'
p485
sS'high_fuses'
p486
S'0xdd'
p487
sS'low_fuses'
p488
S'0xff'
p489
sS'lock_bits'
p490
S'0x0F'
p491
sS'file'
p492
S'ATmegaBOOT_168_ng.hex'
p493
sS'path'
p494
S'atmega'
p495
sS'unlock_bits'
p496
S'0x3F'
p497
ssS'upload'
p498
(dp499
S'protocol'
p500
S'arduino'
p501
sS'maximum_size'
p502
S'14336'
p503
sS'speed'
p504
S'19200'
p505
ssS'name'
p506
S'Arduino Mini w/ ATmega168'
p507
saa(lp508
S'ethernet'
p509
a(dp510
S'build'
p511
(dp512
S'variant'
p513
S'standard'
p514
sS'mcu'
p515
S'atmega328p'
p516
sS'f_cpu'
p517
S'16000000L'
p518
sS'core'
p519
S'arduino'
p520
ssS'bootloader'
p521
(dp522
S'extended_fuses'
p523
S'0x05'
p524
sS'high_fuses'
p525
S'0xde'
p526
sS'low_fuses'
p527
S'0xff'
p528
sS'lock_bits'
p529
S'0x0F'
p530
sS'file'
p531
S'optiboot_atmega328.hex'
p532
sS'path'
p533
S'optiboot'
p534
sS'unlock_bits'
p535
S'0x3F'
p536
ssS'upload'
p537
(dp538
S'protocol'
p539
S'arduino'
p540
sS'maximum_size'
p541
S'32256'
p542
sS'speed'
p543
S'115200'
p544
ssS'name'
p545
S'Arduino Ethernet'
p546
saa(lp547
S'fio'
p548
a(dp549
S'build'
p550
(dp551
S'core'
p552
S'arduino'
p553
sS'mcu'
p554
S'atmega328p'
p555
sS'f_cpu'
p556
S'8000000L'
p557
sS'variant'
p558
S'eightanaloginputs'
p559
ssS'bootloader'
p560
(dp561
S'extended_fuses'
p562
S'0x05'
p563
sS'high_fuses'
p564
S'0xDA'
p565
sS'low_fuses'
p566
S'0xFF'
p567
sS'lock_bits'
p568
S'0x0F'
p569
sS'file'
p570
S'ATmegaBOOT_168_atmega328_pro_8MHz.hex'
p571
sS'path'
p572
S'arduino:atmega'
p573
sS'unlock_bits'
p574
S'0x3F'
p575
ssS'upload'
p576
(dp577
S'protocol'
p578
S'arduino'
p579
sS'maximum_size'
p580
S'30720'
p581
sS'speed'
p582
S'57600'
p583
ssS'name'
p584
S'Arduino Fio'
p585
saa(lp586
S'bt328'
p587
a(dp588
S'build'
p589
(dp590
S'core'
p591
S'arduino'
p592
sS'mcu'
p593
S'atmega328p'
p594
sS'f_cpu'
p595
S'16000000L'
p596
sS'variant'
p597
S'eightanaloginputs'
p598
ssS'bootloader'
p599
(dp600
S'extended_fuses'
p601
S'0x05'
p602
sS'high_fuses'
p603
S'0xd8'
p604
sS'low_fuses'
p605
S'0xff'
p606
sS'lock_bits'
p607
S'0x0F'
p608
sS'file'
p609
S'ATmegaBOOT_168_atmega328_bt.hex'
p610
sS'path'
p611
S'bt'
p612
sS'unlock_bits'
p613
S'0x3F'
p614
ssS'upload'
p615
(dp616
S'protocol'
p617
S'arduino'
p618
sS'maximum_size'
p619
S'28672'
p620
sS'speed'
p621
S'19200'
p622
sS'disable_flushing'
p623
S'true'
p624
ssS'name'
p625
S'Arduino BT w/ ATmega328'
p626
saa(lp627
S'bt'
p628
a(dp629
S'build'
p630
(dp631
S'core'
p632
S'arduino'
p633
sS'mcu'
p634
S'atmega168'
p635
sS'f_cpu'
p636
S'16000000L'
p637
sS'variant'
p638
S'eightanaloginputs'
p639
ssS'bootloader'
p640
(dp641
S'extended_fuses'
p642
S'0x00'
p643
sS'high_fuses'
p644
S'0xdd'
p645
sS'low_fuses'
p646
S'0xff'
p647
sS'lock_bits'
p648
S'0x0F'
p649
sS'file'
p650
S'ATmegaBOOT_168.hex'
p651
sS'path'
p652
S'bt'
p653
sS'unlock_bits'
p654
S'0x3F'
p655
ssS'upload'
p656
(dp657
S'protocol'
p658
S'arduino'
p659
sS'maximum_size'
p660
S'14336'
p661
sS'speed'
p662
S'19200'
p663
sS'disable_flushing'
p664
S'true'
p665
ssS'name'
p666
S'Arduino BT w/ ATmega168'
p667
saa(lp668
S'LilyPadUSB'
p669
a(dp670
S'build'
p671
(dp672
S'core'
p673
S'arduino'
p674
sS'f_cpu'
p675
S'8000000L'
p676
sS'vid'
p677
S'0x1B4F'
p678
sS'pid'
p679
S'0x9208'
p680
sS'variant'
p681
S'leonardo'
p682
sS'mcu'
p683
S'atmega32u4'
p684
ssS'bootloader'
p685
(dp686
S'extended_fuses'
p687
S'0xce'
p688
sS'high_fuses'
p689
S'0xd8'
p690
sS'low_fuses'
p691
S'0xff'
p692
sS'lock_bits'
p693
S'0x2F'
p694
sS'file'
p695
S'Caterina-LilyPadUSB.hex'
p696
sS'path'
p697
S'caterina-LilyPadUSB'
p698
sS'unlock_bits'
p699
S'0x3F'
p700
ssS'upload'
p701
(dp702
S'protocol'
p703
S'avr109'
p704
sS'maximum_size'
p705
S'28672'
p706
sS'speed'
p707
S'57600'
p708
sS'disable_flushing'
p709
S'true'
p710
ssS'name'
p711
S'LilyPad Arduino USB'
p712
saa(lp713
S'lilypad328'
p714
a(dp715
S'build'
p716
(dp717
S'core'
p718
S'arduino'
p719
sS'mcu'
p720
S'atmega328p'
p721
sS'f_cpu'
p722
S'8000000L'
p723
sS'variant'
p724
S'standard'
p725
ssS'bootloader'
p726
(dp727
S'extended_fuses'
p728
S'0x05'
p729
sS'high_fuses'
p730
S'0xDA'
p731
sS'low_fuses'
p732
S'0xFF'
p733
sS'lock_bits'
p734
S'0x0F'
p735
sS'file'
p736
S'ATmegaBOOT_168_atmega328_pro_8MHz.hex'
p737
sS'path'
p738
S'atmega'
p739
sS'unlock_bits'
p740
S'0x3F'
p741
ssS'upload'
p742
(dp743
S'protocol'
p744
S'arduino'
p745
sS'maximum_size'
p746
S'30720'
p747
sS'speed'
p748
S'57600'
p749
ssS'name'
p750
S'LilyPad Arduino w/ ATmega328'
p751
saa(lp752
S'lilypad'
p753
a(dp754
S'build'
p755
(dp756
S'core'
p757
S'arduino'
p758
sS'mcu'
p759
S'atmega168'
p760
sS'f_cpu'
p761
S'8000000L'
p762
sS'variant'
p763
S'standard'
p764
ssS'bootloader'
p765
(dp766
S'extended_fuses'
p767
S'0x00'
p768
sS'high_fuses'
p769
S'0xdd'
p770
sS'low_fuses'
p771
S'0xe2'
p772
sS'lock_bits'
p773
S'0x0F'
p774
sS'file'
p775
S'LilyPadBOOT_168.hex'
p776
sS'path'
p777
S'lilypad'
p778
sS'unlock_bits'
p779
S'0x3F'
p780
ssS'upload'
p781
(dp782
S'protocol'
p783
S'arduino'
p784
sS'maximum_size'
p785
S'14336'
p786
sS'speed'
p787
S'19200'
p788
ssS'name'
p789
S'LilyPad Arduino w/ ATmega168'
p790
saa(lp791
S'pro5v328'
p792
a(dp793
S'build'
p794
(dp795
S'core'
p796
S'arduino'
p797
sS'mcu'
p798
S'atmega328p'
p799
sS'f_cpu'
p800
S'16000000L'
p801
sS'variant'
p802
S'standard'
p803
ssS'bootloader'
p804
(dp805
S'extended_fuses'
p806
S'0x05'
p807
sS'high_fuses'
p808
S'0xDA'
p809
sS'low_fuses'
p810
S'0xFF'
p811
sS'lock_bits'
p812
S'0x0F'
p813
sS'file'
p814
S'ATmegaBOOT_168_atmega328.hex'
p815
sS'path'
p816
S'atmega'
p817
sS'unlock_bits'
p818
S'0x3F'
p819
ssS'upload'
p820
(dp821
S'protocol'
p822
S'arduino'
p823
sS'maximum_size'
p824
S'30720'
p825
sS'speed'
p826
S'57600'
p827
ssS'name'
p828
S'Arduino Pro or Pro Mini (5V, 16 MHz) w/ ATmega328'
p829
saa(lp830
S'pro5v'
p831
a(dp832
S'build'
p833
(dp834
S'core'
p835
S'arduino'
p836
sS'mcu'
p837
S'atmega168'
p838
sS'f_cpu'
p839
S'16000000L'
p840
sS'variant'
p841
S'standard'
p842
ssS'bootloader'
p843
(dp844
S'extended_fuses'
p845
S'0x00'
p846
sS'high_fuses'
p847
S'0xdd'
p848
sS'low_fuses'
p849
S'0xff'
p850
sS'lock_bits'
p851
S'0x0F'
p852
sS'file'
p853
S'ATmegaBOOT_168_diecimila.hex'
p854
sS'path'
p855
S'atmega'
p856
sS'unlock_bits'
p857
S'0x3F'
p858
ssS'upload'
p859
(dp860
S'protocol'
p861
S'arduino'
p862
sS'maximum_size'
p863
S'14336'
p864
sS'speed'
p865
S'19200'
p866
ssS'name'
p867
S'Arduino Pro or Pro Mini (5V, 16 MHz) w/ ATmega168'
p868
saa(lp869
S'pro328'
p870
a(dp871
S'build'
p872
(dp873
S'core'
p874
S'arduino'
p875
sS'mcu'
p876
S'atmega328p'
p877
sS'f_cpu'
p878
S'8000000L'
p879
sS'variant'
p880
S'standard'
p881
ssS'bootloader'
p882
(dp883
S'extended_fuses'
p884
S'0x05'
p885
sS'high_fuses'
p886
S'0xDA'
p887
sS'low_fuses'
p888
S'0xFF'
p889
sS'lock_bits'
p890
S'0x0F'
p891
sS'file'
p892
S'ATmegaBOOT_168_atmega328_pro_8MHz.hex'
p893
sS'path'
p894
S'atmega'
p895
sS'unlock_bits'
p896
S'0x3F'
p897
ssS'upload'
p898
(dp899
S'protocol'
p900
S'arduino'
p901
sS'maximum_size'
p902
S'30720'
p903
sS'speed'
p904
S'57600'
p905
ssS'name'
p906
S'Arduino Pro or Pro Mini (3.3V, 8 MHz) w/ ATmega328'
p907
saa(lp908
S'pro'
p909
a(dp910
S'build'
p911
(dp912
S'core'
p913
S'arduino'
p914
sS'mcu'
p915
S'atmega168'
p916
sS'f_cpu'
p917
S'8000000L'
p918
sS'variant'
p919
S'standard'
p920
ssS'bootloader'
p921
(dp922
S'extended_fuses'
p923
S'0x00'
p924
sS'high_fuses'
p925
S'0xdd'
p926
sS'low_fuses'
p927
S'0xc6'
p928
sS'lock_bits'
p929
S'0x0F'
p930
sS'file'
p931
S'ATmegaBOOT_168_pro_8MHz.hex'
p932
sS'path'
p933
S'atmega'
p934
sS'unlock_bits'
p935
S'0x3F'
p936
ssS'upload'
p937
(dp938
S'protocol'
p939
S'arduino'
p940
sS'maximum_size'
p941
S'14336'
p942
sS'speed'
p943
S'19200'
p944
ssS'name'
p945
S'Arduino Pro or Pro Mini (3.3V, 8 MHz) w/ ATmega168'
p946
saa(lp947
S'atmega168'
p948
a(dp949
S'build'
p950
(dp951
S'core'
p952
S'arduino'
p953
sS'mcu'
p954
S'atmega168'
p955
sS'f_cpu'
p956
S'16000000L'
p957
sS'variant'
p958
S'standard'
p959
ssS'bootloader'
p960
(dp961
S'extended_fuses'
p962
S'0x00'
p963
sS'high_fuses'
p964
S'0xdd'
p965
sS'low_fuses'
p966
S'0xff'
p967
sS'lock_bits'
p968
S'0x0F'
p969
sS'file'
p970
S'ATmegaBOOT_168_ng.hex'
p971
sS'path'
p972
S'atmega'
p973
sS'unlock_bits'
p974
S'0x3F'
p975
ssS'upload'
p976
(dp977
S'protocol'
p978
S'arduino'
p979
sS'maximum_size'
p980
S'14336'
p981
sS'speed'
p982
S'19200'
p983
ssS'name'
p984
S'Arduino NG or older w/ ATmega168'
p985
saa(lp986
S'atmega8'
p987
a(dp988
S'build'
p989
(dp990
S'core'
p991
S'arduino'
p992
sS'mcu'
p993
S'atmega8'
p994
sS'f_cpu'
p995
S'16000000L'
p996
sS'variant'
p997
S'standard'
p998
ssS'bootloader'
p999
(dp1000
S'high_fuses'
p1001
S'0xca'
p1002
sS'low_fuses'
p1003
S'0xdf'
p1004
sS'lock_bits'
p1005
S'0x0F'
p1006
sS'file'
p1007
S'ATmegaBOOT-prod-firmware-2009-11-07.hex'
p1008
sS'path'
p1009
S'atmega8'
p1010
sS'unlock_bits'
p1011
S'0x3F'
p1012
ssS'upload'
p1013
(dp1014
S'protocol'
p1015
S'arduino'
p1016
sS'maximum_size'
p1017
S'7168'
p1018
sS'speed'
p1019
S'19200'
p1020
ssS'name'
p1021
S'Arduino NG or older w/ ATmega8'
p1022
saa(lp1023
S'robotControl'
p1024
a(dp1025
S'build'
p1026
(dp1027
S'core'
p1028
S'robot'
p1029
sS'f_cpu'
p1030
S'16000000L'
p1031
sS'vid'
p1032
S'0x2341'
p1033
sS'pid'
p1034
S'0x8038'
p1035
sS'variant'
p1036
S'robot_control'
p1037
sS'mcu'
p1038
S'atmega32u4'
p1039
ssS'bootloader'
p1040
(dp1041
S'extended_fuses'
p1042
S'0xcb'
p1043
sS'high_fuses'
p1044
S'0xd8'
p1045
sS'low_fuses'
p1046
S'0xff'
p1047
sS'lock_bits'
p1048
S'0x2F'
p1049
sS'file'
p1050
S'Caterina-Robot-Control.hex'
p1051
sS'path'
p1052
S'caterina-Arduino_Robot'
p1053
sS'unlock_bits'
p1054
S'0x3F'
p1055
ssS'upload'
p1056
(dp1057
S'protocol'
p1058
S'avr109'
p1059
sS'maximum_size'
p1060
S'28672'
p1061
sS'speed'
p1062
S'57600'
p1063
sS'disable_flushing'
p1064
S'true'
p1065
ssS'name'
p1066
S'Arduino Robot Control'
p1067
saa(lp1068
S'robotMotor'
p1069
a(dp1070
S'build'
p1071
(dp1072
S'core'
p1073
S'robot'
p1074
sS'f_cpu'
p1075
S'16000000L'
p1076
sS'vid'
p1077
S'0x2341'
p1078
sS'pid'
p1079
S'0x8039'
p1080
sS'variant'
p1081
S'robot_motor'
p1082
sS'mcu'
p1083
S'atmega32u4'
p1084
ssS'bootloader'
p1085
(dp1086
S'extended_fuses'
p1087
S'0xcb'
p1088
sS'high_fuses'
p1089
S'0xd8'
p1090
sS'low_fuses'
p1091
S'0xff'
p1092
sS'lock_bits'
p1093
S'0x2F'
p1094
sS'file'
p1095
S'Caterina-Robot-Motor.hex'
p1096
sS'path'
p1097
S'caterina-Arduino_Robot'
p1098
sS'unlock_bits'
p1099
S'0x3F'
p1100
ssS'upload'
p1101
(dp1102
S'protocol'
p1103
S'avr109'
p1104
sS'maximum_size'
p1105
S'28672'
p1106
sS'speed'
p1107
S'57600'
p1108
sS'disable_flushing'
p1109
S'true'
p1110
ssS'name'
p1111
S'Arduino Robot Motor'
p1112
saatp1113
Rp1114
(dp1115
S'default'
p1116
S'uno'
p1117
sbtp1118
a.